; Function Attrs: nofree norecurse nosync nounwind memory(write, argmem: readwrite, inaccessiblemem: none) uwtable
define internal fastcc void @RestartModel(ptr noundef captures(none) initializes((0, 28), (32, 36), (44, 52), (56, 60), (72, 104), (276, 428)) %0) unnamed_addr #2 {
  %2 = getelementptr inbounds nuw i8, ptr %0, i64 276
  tail call void @llvm.memset.p0.i64(ptr noundef nonnull align 4 dereferenceable(152) %2, i8 0, i64 152, i1 false)
  %3 = getelementptr inbounds nuw i8, ptr %0, i64 64
  %4 = load ptr, ptr %3, align 8, !tbaa !4
  %5 = getelementptr inbounds nuw i8, ptr %0, i64 104
  %6 = load i32, ptr %5, align 8, !tbaa !21
  %7 = zext i32 %6 to i64
  %8 = getelementptr inbounds nuw i8, ptr %4, i64 %7
  %9 = getelementptr inbounds nuw i8, ptr %0, i64 88
  store ptr %8, ptr %9, align 8, !tbaa !54
  %10 = getelementptr inbounds nuw i8, ptr %0, i64 52
  %11 = load i32, ptr %10, align 4, !tbaa !20
  %12 = zext i32 %11 to i64
  %13 = getelementptr inbounds nuw i8, ptr %8, i64 %12
  %14 = getelementptr inbounds nuw i8, ptr %0, i64 80
  %15 = udiv i32 %11, 96
  %16 = mul nuw i32 %15, 84
  %17 = zext i32 %16 to i64
  %18 = sub nsw i64 0, %17
  %19 = getelementptr inbounds i8, ptr %13, i64 %18
  %20 = getelementptr inbounds nuw i8, ptr %0, i64 96
  store ptr %19, ptr %20, align 8, !tbaa !95
  %21 = getelementptr inbounds nuw i8, ptr %0, i64 72
  %22 = getelementptr inbounds nuw i8, ptr %0, i64 56
  store i32 0, ptr %22, align 8, !tbaa !96
  %23 = getelementptr inbounds nuw i8, ptr %0, i64 36
  %24 = load i32, ptr %23, align 4, !tbaa !22
  %25 = getelementptr inbounds nuw i8, ptr %0, i64 24
  store i32 %24, ptr %25, align 8, !tbaa !53
  %26 = tail call i32 @llvm.umin.i32(i32 %24, i32 12)
  %spec.select = xor i32 %26, -1
  %27 = getelementptr inbounds nuw i8, ptr %0, i64 48
  store i32 %spec.select, ptr %27, align 8, !tbaa !73
  %28 = getelementptr inbounds nuw i8, ptr %0, i64 44
  store i32 %spec.select, ptr %28, align 4, !tbaa !52
  %29 = getelementptr inbounds nuw i8, ptr %0, i64 32
  store i32 0, ptr %29, align 8, !tbaa !51
  %30 = getelementptr inbounds i8, ptr %13, i64 -12
  store ptr %30, ptr %14, align 8, !tbaa !97
  %31 = getelementptr inbounds nuw i8, ptr %0, i64 8
  store ptr %30, ptr %31, align 8, !tbaa !55
  store ptr %30, ptr %0, align 8, !tbaa !40
  %32 = getelementptr inbounds i8, ptr %13, i64 -4
  store i32 0, ptr %32, align 4, !tbaa !63
  store i16 256, ptr %30, align 4, !tbaa !41
  %33 = getelementptr inbounds i8, ptr %13, i64 -10
  store i16 257, ptr %33, align 2, !tbaa !45
  %34 = getelementptr inbounds nuw i8, ptr %0, i64 16
  store ptr %19, ptr %34, align 8, !tbaa !49
  %35 = getelementptr inbounds nuw i8, ptr %19, i64 1536
  store ptr %35, ptr %21, align 8, !tbaa !98
  %36 = ptrtoint ptr %19 to i64
  %37 = ptrtoint ptr %4 to i64
  %38 = sub i64 %36, %37
  %39 = trunc i64 %38 to i32
  %40 = getelementptr inbounds i8, ptr %13, i64 -8
  store i32 %39, ptr %40, align 4, !tbaa !43
  br label %42

.preheader69:                                     ; preds = %42
  %41 = getelementptr inbounds nuw i8, ptr %0, i64 2800
  br label %.preheader68

42:                                               ; preds = %1, %42
  %indvars.iv = phi i64 [ 0, %1 ], [ %indvars.iv.next, %42 ]
  %43 = getelementptr inbounds nuw %struct.CPpmd_State, ptr %19, i64 %indvars.iv
  %44 = trunc i64 %indvars.iv to i8
  store i8 %44, ptr %43, align 2, !tbaa !50
  %45 = getelementptr inbounds nuw i8, ptr %43, i64 1
  store i8 1, ptr %45, align 1, !tbaa !46
  %46 = getelementptr inbounds nuw i8, ptr %43, i64 2
  store i16 0, ptr %46, align 2, !tbaa !99
  %47 = getelementptr inbounds nuw i8, ptr %43, i64 4
  store i16 0, ptr %47, align 2, !tbaa !100
  %indvars.iv.next = add nuw nsw i64 %indvars.iv, 1
  %exitcond.not = icmp eq i64 %indvars.iv.next, 256
  br i1 %exitcond.not, label %.preheader69, label %42, !llvm.loop !101

.preheader68:                                     ; preds = %.preheader69, %64
  %indvars.iv84 = phi i64 [ 0, %.preheader69 ], [ %indvars.iv.next85, %64 ]
  %48 = getelementptr inbounds nuw [128 x [64 x i16]], ptr %41, i64 0, i64 %indvars.iv84
  %49 = trunc i64 %indvars.iv84 to i32
  %50 = add i32 %49, 2
  br label %52

.preheader67:                                     ; preds = %64
  %51 = getelementptr inbounds nuw i8, ptr %0, i64 1200
  br label %.preheader

52:                                               ; preds = %.preheader68, %63
  %indvars.iv80 = phi i64 [ 0, %.preheader68 ], [ %indvars.iv.next81, %63 ]
  %53 = getelementptr inbounds nuw i16, ptr %48, i64 %indvars.iv80
  %54 = getelementptr inbounds nuw [8 x i16], ptr @kInitBinEsc, i64 0, i64 %indvars.iv80
  %55 = load i16, ptr %54, align 2, !tbaa !57
  %56 = zext i16 %55 to i32
  %57 = udiv i32 %56, %50
  %58 = trunc nuw i32 %57 to i16
  %59 = sub nsw i16 16384, %58
  br label %60

60:                                               ; preds = %52, %60
  %indvars.iv77 = phi i64 [ 0, %52 ], [ %indvars.iv.next78, %60 ]
  %61 = getelementptr inbounds nuw i16, ptr %53, i64 %indvars.iv77
  store i16 %59, ptr %61, align 2, !tbaa !57
  %indvars.iv.next78 = add nuw nsw i64 %indvars.iv77, 8
  %62 = icmp samesign ult i64 %indvars.iv77, 56
  br i1 %62, label %60, label %63, !llvm.loop !102

63:                                               ; preds = %60
  %indvars.iv.next81 = add nuw nsw i64 %indvars.iv80, 1
  %exitcond83.not = icmp eq i64 %indvars.iv.next81, 8
  br i1 %exitcond83.not, label %64, label %52, !llvm.loop !103

64:                                               ; preds = %63
  %indvars.iv.next85 = add nuw nsw i64 %indvars.iv84, 1
  %exitcond87.not = icmp eq i64 %indvars.iv.next85, 128
  br i1 %exitcond87.not, label %.preheader67, label %.preheader68, !llvm.loop !104

.preheader:                                       ; preds = %.preheader67, %72
  %indvars.iv92 = phi i64 [ 0, %.preheader67 ], [ %indvars.iv.next93, %72 ]
  %65 = trunc i64 %indvars.iv92 to i16
  %66 = mul nuw nsw i16 %65, 40
  %67 = add nuw nsw i16 %66, 80
  br label %68

68:                                               ; preds = %.preheader, %68
  %indvars.iv88 = phi i64 [ 0, %.preheader ], [ %indvars.iv.next89, %68 ]
  %69 = getelementptr inbounds nuw [25 x [16 x %struct.CPpmd_See]], ptr %51, i64 0, i64 %indvars.iv92, i64 %indvars.iv88
  %70 = getelementptr inbounds nuw i8, ptr %69, i64 2
  store i8 3, ptr %70, align 2, !tbaa !70
  store i16 %67, ptr %69, align 2, !tbaa !69
  %71 = getelementptr inbounds nuw i8, ptr %69, i64 3
  store i8 4, ptr %71, align 1, !tbaa !72
  %indvars.iv.next89 = add nuw nsw i64 %indvars.iv88, 1
  %exitcond91.not = icmp eq i64 %indvars.iv.next89, 16
  br i1 %exitcond91.not, label %72, label %68, !llvm.loop !105

72:                                               ; preds = %68
  %indvars.iv.next93 = add nuw nsw i64 %indvars.iv92, 1
  %exitcond95.not = icmp eq i64 %indvars.iv.next93, 25
  br i1 %exitcond95.not, label %73, label %.preheader, !llvm.loop !106

73:                                               ; preds = %72
  ret void
}